; ModuleID = '22/953.c'
source_filename = "22/953.c"
target datalayout = "e-m:e-p270:32:32-p271:32:32-p272:64:64-i64:64-f80:128-n8:16:32:64-S128"
target triple = "x86_64-pc-linux-gnu"

@.str = private unnamed_addr constant [3 x i8] c"%d\00", align 1
@.str.1 = private unnamed_addr constant [3 x i8] c"%c\00", align 1
@.str.2 = private unnamed_addr constant [3 x i8] c"No\00", align 1

; Function Attrs: noinline nounwind uwtable
define dso_local i32 @main() #0 {
  %1 = alloca i32, align 4
  %2 = alloca i32, align 4
  %3 = alloca i32, align 4
  %4 = alloca i32, align 4
  %5 = alloca [301 x i32], align 16
  %6 = alloca i8, align 1
  store i32 0, i32* %1, align 4
  store i32 1, i32* %2, align 4
  store i32 0, i32* %3, align 4
  store i32 0, i32* %4, align 4
  br label %7

7:                                                ; preds = %51, %0
  %8 = load i32, i32* %2, align 4
  %9 = sext i32 %8 to i64
  %10 = getelementptr inbounds [301 x i32], [301 x i32]* %5, i64 0, i64 %9
  %11 = call i32 (i8*, ...) @__isoc99_scanf(i8* getelementptr inbounds ([3 x i8], [3 x i8]* @.str, i64 0, i64 0), i32* %10)
  %12 = load i32, i32* %2, align 4
  %13 = sext i32 %12 to i64
  %14 = getelementptr inbounds [301 x i32], [301 x i32]* %5, i64 0, i64 %13
  %15 = load i32, i32* %14, align 4
  %16 = load i32, i32* %3, align 4
  %17 = icmp sgt i32 %15, %16
  br i1 %17, label %18, label %24

18:                                               ; preds = %7
  %19 = load i32, i32* %3, align 4
  store i32 %19, i32* %4, align 4
  %20 = load i32, i32* %2, align 4
  %21 = sext i32 %20 to i64
  %22 = getelementptr inbounds [301 x i32], [301 x i32]* %5, i64 0, i64 %21
  %23 = load i32, i32* %22, align 4
  store i32 %23, i32* %3, align 4
  br label %44

24:                                               ; preds = %7
  %25 = load i32, i32* %2, align 4
  %26 = sext i32 %25 to i64
  %27 = getelementptr inbounds [301 x i32], [301 x i32]* %5, i64 0, i64 %26
  %28 = load i32, i32* %27, align 4
  %29 = load i32, i32* %4, align 4
  %30 = icmp sgt i32 %28, %29
  br i1 %30, label %31, label %43

31:                                               ; preds = %24
  %32 = load i32, i32* %2, align 4
  %33 = sext i32 %32 to i64
  %34 = getelementptr inbounds [301 x i32], [301 x i32]* %5, i64 0, i64 %33
  %35 = load i32, i32* %34, align 4
  %36 = load i32, i32* %3, align 4
  %37 = icmp slt i32 %35, %36
  br i1 %37, label %38, label %43

38:                                               ; preds = %31
  %39 = load i32, i32* %2, align 4
  %40 = sext i32 %39 to i64
  %41 = getelementptr inbounds [301 x i32], [301 x i32]* %5, i64 0, i64 %40
  %42 = load i32, i32* %41, align 4
  store i32 %42, i32* %4, align 4
  br label %43

43:                                               ; preds = %38, %31, %24
  br label %44

44:                                               ; preds = %43, %18
  %45 = call i32 (i8*, ...) @__isoc99_scanf(i8* getelementptr inbounds ([3 x i8], [3 x i8]* @.str.1, i64 0, i64 0), i8* %6)
  %46 = icmp eq i32 %45, -1
  br i1 %46, label %47, label %48

47:                                               ; preds = %44
  br label %55

48:                                               ; preds = %44
  %49 = load i32, i32* %2, align 4
  %50 = add nsw i32 %49, 1
  store i32 %50, i32* %2, align 4
  br label %51

51:                                               ; preds = %48
  %52 = load i8, i8* %6, align 1
  %53 = sext i8 %52 to i32
  %54 = icmp eq i32 %53, 44
  br i1 %54, label %7, label %55

55:                                               ; preds = %51, %47
  %56 = load i32, i32* %2, align 4
  %57 = icmp eq i32 %56, 2
  br i1 %57, label %66, label %58

58:                                               ; preds = %55
  %59 = load i32, i32* %3, align 4
  %60 = getelementptr inbounds [301 x i32], [301 x i32]* %5, i64 0, i64 1
  %61 = load i32, i32* %60, align 4
  %62 = icmp eq i32 %59, %61
  br i1 %62, label %63, label %68

63:                                               ; preds = %58
  %64 = load i32, i32* %4, align 4
  %65 = icmp eq i32 %64, 0
  br i1 %65, label %66, label %68

66:                                               ; preds = %63, %55
  %67 = call i32 (i8*, ...) @printf(i8* getelementptr inbounds ([3 x i8], [3 x i8]* @.str.2, i64 0, i64 0))
  br label %71

68:                                               ; preds = %63, %58
  %69 = load i32, i32* %4, align 4
  %70 = call i32 (i8*, ...) @printf(i8* getelementptr inbounds ([3 x i8], [3 x i8]* @.str, i64 0, i64 0), i32 %69)
  br label %71

71:                                               ; preds = %68, %66
  ret i32 0
}

declare dso_local i32 @__isoc99_scanf(i8*, ...) #1

declare dso_local i32 @printf(i8*, ...) #1


!llvm.module.flags = !{!0}
!llvm.ident = !{!1}

!0 = !{i32 1, !"wchar_size", i32 4}
!1 = !{!"clang version 10.0.0-4ubuntu1 "}
